target datalayout = "e-m:e-p270:32:32-p271:32:32-p272:64:64-i64:64-i128:128-f80:128-n8:16:32:64-S128"
target triple = "x86_64-pc-linux-gnu"

%class.QDomElement = type { %class.QDomNode }
%class.QDomNode = type { ptr }
%class.QString = type { ptr }
%class.QDir = type { %class.QSharedDataPointer.141 }
%class.QSharedDataPointer.141 = type { ptr }
%class.RasterPlane = type { i32, %class.QString, %class.QImage }
%class.QImage = type { %class.QPaintDevice, ptr }
%class.QPaintDevice = type { ptr, i16, ptr }

@.str.24 = private unnamed_addr constant [6 x i8] c"Plane\00", align 1
@.str.25 = private unnamed_addr constant [9 x i8] c"fileName\00", align 1
@.str.26 = private unnamed_addr constant [9 x i8] c"semantic\00", align 1

; Function Attrs: mustprogress nounwind uwtable
define linkonce_odr void @_ZN11QDomElementD2Ev(ptr noundef nonnull align 8 dereferenceable(8) %0) unnamed_addr #4 comdat align 2 {
  %2 = alloca ptr, align 8
  store ptr %0, ptr %2, align 8
  %3 = load ptr, ptr %2, align 8
  call void @_ZN8QDomNodeD2Ev(ptr noundef nonnull align 8 dereferenceable(8) %3) #3
  ret void
}

; Function Attrs: mustprogress uwtable
define linkonce_odr void @_ZN11QDomElement12setAttributeERK7QStringi(ptr noundef nonnull align 8 dereferenceable(8) %0, ptr noundef nonnull align 8 dereferenceable(8) %1, i32 noundef %2) #5 comdat align 2 {
  %4 = alloca ptr, align 8
  %5 = alloca ptr, align 8
  %6 = alloca i32, align 4
  store ptr %0, ptr %4, align 8
  store ptr %1, ptr %5, align 8
  store i32 %2, ptr %6, align 4
  %7 = load ptr, ptr %4, align 8
  %8 = load ptr, ptr %5, align 8
  %9 = load i32, ptr %6, align 4
  %10 = sext i32 %9 to i64
  call void @_ZN11QDomElement12setAttributeERK7QStringx(ptr noundef nonnull align 8 dereferenceable(8) %7, ptr noundef nonnull align 8 dereferenceable(8) %8, i64 noundef %10)
  ret void
}

; Function Attrs: mustprogress uwtable
define linkonce_odr void @_ZN7QStringC2EPKc(ptr noundef nonnull align 8 dereferenceable(8) %0, ptr noundef %1) unnamed_addr #5 comdat align 2 {
  %3 = alloca ptr, align 8
  %4 = alloca ptr, align 8
  store ptr %0, ptr %3, align 8
  store ptr %1, ptr %4, align 8
  %5 = load ptr, ptr %3, align 8
  %6 = getelementptr inbounds %class.QString, ptr %5, i32 0, i32 0
  %7 = load ptr, ptr %4, align 8
  %8 = load ptr, ptr %4, align 8
  %9 = icmp ne ptr %8, null
  br i1 %9, label %10, label %14

10:                                               ; preds = %2
  %11 = load ptr, ptr %4, align 8
  %12 = call i64 @strlen(ptr noundef %11) #20
  %13 = trunc i64 %12 to i32
  br label %15

14:                                               ; preds = %2
  br label %15

15:                                               ; preds = %14, %10
  %16 = phi i32 [ %13, %10 ], [ -1, %14 ]
  %17 = call noundef ptr @_ZN7QString16fromAscii_helperEPKci(ptr noundef %7, i32 noundef %16)
  store ptr %17, ptr %6, align 8
  ret void
}

; Function Attrs: mustprogress uwtable
define void @_ZN3mlp10planeToXMLEPK11RasterPlaneRK7QStringR12QDomDocument(ptr dead_on_unwind noalias writable sret(%class.QDomElement) align 8 %0, ptr noundef %1, ptr noundef nonnull align 8 dereferenceable(8) %2, ptr noundef nonnull align 8 dereferenceable(8) %3) #5 personality ptr @__gxx_personality_v0 {
  %5 = alloca ptr, align 8
  %6 = alloca ptr, align 8
  %7 = alloca ptr, align 8
  %8 = alloca ptr, align 8
  %9 = alloca i1, align 1
  %10 = alloca %class.QString, align 8
  %11 = alloca ptr, align 8
  %12 = alloca i32, align 4
  %13 = alloca %class.QDir, align 8
  %14 = alloca %class.QString, align 8
  %15 = alloca %class.QString, align 8
  %16 = alloca %class.QString, align 8
  store ptr %0, ptr %5, align 8
  store ptr %1, ptr %6, align 8
  store ptr %2, ptr %7, align 8
  store ptr %3, ptr %8, align 8
  store i1 false, ptr %9, align 1
  %17 = load ptr, ptr %8, align 8
  call void @_ZN7QStringC2EPKc(ptr noundef nonnull align 8 dereferenceable(8) %10, ptr noundef @.str.24)
  invoke void @_ZN12QDomDocument13createElementERK7QString(ptr dead_on_unwind writable sret(%class.QDomElement) align 8 %0, ptr noundef nonnull align 8 dereferenceable(8) %17, ptr noundef nonnull align 8 dereferenceable(8) %10)
          to label %18 unwind label %32

18:                                               ; preds = %4
  call void @_ZN7QStringD2Ev(ptr noundef nonnull align 8 dereferenceable(8) %10) #3
  %19 = load ptr, ptr %7, align 8
  invoke void @_ZN4QDirC1ERK7QString(ptr noundef nonnull align 8 dereferenceable(8) %13, ptr noundef nonnull align 8 dereferenceable(8) %19)
          to label %20 unwind label %36

20:                                               ; preds = %18
  invoke void @_ZN7QStringC2EPKc(ptr noundef nonnull align 8 dereferenceable(8) %14, ptr noundef @.str.25)
          to label %21 unwind label %40

21:                                               ; preds = %20
  %22 = load ptr, ptr %6, align 8
  %23 = getelementptr inbounds %class.RasterPlane, ptr %22, i32 0, i32 1
  invoke void @_ZNK4QDir16relativeFilePathERK7QString(ptr dead_on_unwind writable sret(%class.QString) align 8 %15, ptr noundef nonnull align 8 dereferenceable(8) %13, ptr noundef nonnull align 8 dereferenceable(8) %23)
          to label %24 unwind label %44

24:                                               ; preds = %21
  invoke void @_ZN11QDomElement12setAttributeERK7QStringS2_(ptr noundef nonnull align 8 dereferenceable(8) %0, ptr noundef nonnull align 8 dereferenceable(8) %14, ptr noundef nonnull align 8 dereferenceable(8) %15)
          to label %25 unwind label %48

25:                                               ; preds = %24
  call void @_ZN7QStringD2Ev(ptr noundef nonnull align 8 dereferenceable(8) %15) #3
  call void @_ZN7QStringD2Ev(ptr noundef nonnull align 8 dereferenceable(8) %14) #3
  invoke void @_ZN7QStringC2EPKc(ptr noundef nonnull align 8 dereferenceable(8) %16, ptr noundef @.str.26)
          to label %26 unwind label %40

26:                                               ; preds = %25
  %27 = load ptr, ptr %6, align 8
  %28 = getelementptr inbounds %class.RasterPlane, ptr %27, i32 0, i32 0
  %29 = load i32, ptr %28, align 8
  invoke void @_ZN11QDomElement12setAttributeERK7QStringi(ptr noundef nonnull align 8 dereferenceable(8) %0, ptr noundef nonnull align 8 dereferenceable(8) %16, i32 noundef %29)
          to label %30 unwind label %53

30:                                               ; preds = %26
  call void @_ZN7QStringD2Ev(ptr noundef nonnull align 8 dereferenceable(8) %16) #3
  store i1 true, ptr %9, align 1
  call void @_ZN4QDirD1Ev(ptr noundef nonnull align 8 dereferenceable(8) %13) #3
  %31 = load i1, ptr %9, align 1
  br i1 %31, label %59, label %58

32:                                               ; preds = %4
  %33 = landingpad { ptr, i32 }
          cleanup
  %34 = extractvalue { ptr, i32 } %33, 0
  store ptr %34, ptr %11, align 8
  %35 = extractvalue { ptr, i32 } %33, 1
  store i32 %35, ptr %12, align 4
  call void @_ZN7QStringD2Ev(ptr noundef nonnull align 8 dereferenceable(8) %10) #3
  br label %61

36:                                               ; preds = %18
  %37 = landingpad { ptr, i32 }
          cleanup
  %38 = extractvalue { ptr, i32 } %37, 0
  store ptr %38, ptr %11, align 8
  %39 = extractvalue { ptr, i32 } %37, 1
  store i32 %39, ptr %12, align 4
  br label %60

40:                                               ; preds = %25, %20
  %41 = landingpad { ptr, i32 }
          cleanup
  %42 = extractvalue { ptr, i32 } %41, 0
  store ptr %42, ptr %11, align 8
  %43 = extractvalue { ptr, i32 } %41, 1
  store i32 %43, ptr %12, align 4
  br label %57

44:                                               ; preds = %21
  %45 = landingpad { ptr, i32 }
          cleanup
  %46 = extractvalue { ptr, i32 } %45, 0
  store ptr %46, ptr %11, align 8
  %47 = extractvalue { ptr, i32 } %45, 1
  store i32 %47, ptr %12, align 4
  br label %52

48:                                               ; preds = %24
  %49 = landingpad { ptr, i32 }
          cleanup
  %50 = extractvalue { ptr, i32 } %49, 0
  store ptr %50, ptr %11, align 8
  %51 = extractvalue { ptr, i32 } %49, 1
  store i32 %51, ptr %12, align 4
  call void @_ZN7QStringD2Ev(ptr noundef nonnull align 8 dereferenceable(8) %15) #3
  br label %52

52:                                               ; preds = %48, %44
  call void @_ZN7QStringD2Ev(ptr noundef nonnull align 8 dereferenceable(8) %14) #3
  br label %57

53:                                               ; preds = %26
  %54 = landingpad { ptr, i32 }
          cleanup
  %55 = extractvalue { ptr, i32 } %54, 0
  store ptr %55, ptr %11, align 8
  %56 = extractvalue { ptr, i32 } %54, 1
  store i32 %56, ptr %12, align 4
  call void @_ZN7QStringD2Ev(ptr noundef nonnull align 8 dereferenceable(8) %16) #3
  br label %57

57:                                               ; preds = %53, %52, %40
  call void @_ZN4QDirD1Ev(ptr noundef nonnull align 8 dereferenceable(8) %13) #3
  br label %60

58:                                               ; preds = %30
  call void @_ZN11QDomElementD2Ev(ptr noundef nonnull align 8 dereferenceable(8) %0) #3
  br label %59

59:                                               ; preds = %58, %30
  ret void

60:                                               ; preds = %57, %36
  call void @_ZN11QDomElementD2Ev(ptr noundef nonnull align 8 dereferenceable(8) %0) #3
  br label %61

61:                                               ; preds = %60, %32
  %62 = load ptr, ptr %11, align 8
  %63 = load i32, ptr %12, align 4
  %64 = insertvalue { ptr, i32 } poison, ptr %62, 0
  %65 = insertvalue { ptr, i32 } %64, i32 %63, 1
  resume { ptr, i32 } %65
}