; Function Attrs: mustprogress uwtable
define void @_ZN3mlp10planeToXMLEPK11RasterPlaneRK7QStringR12QDomDocument(ptr dead_on_unwind noalias writable sret(%class.QDomElement) align 8 %0, ptr noundef %1, ptr noundef nonnull align 8 dereferenceable(8) %2, ptr noundef nonnull align 8 dereferenceable(8) %3) local_unnamed_addr #9 personality ptr @__gxx_personality_v0 {
  %5 = alloca %class.QString, align 8
  %6 = alloca %class.QDir, align 8
  %7 = alloca %class.QString, align 8
  %8 = alloca %class.QString, align 8
  %9 = alloca %class.QString, align 8
  %10 = tail call noundef ptr @_ZN7QString16fromAscii_helperEPKci(ptr noundef nonnull @.str.24, i32 noundef 5)
  store ptr %10, ptr %5, align 8
  invoke void @_ZN12QDomDocument13createElementERK7QString(ptr dead_on_unwind writable sret(%class.QDomElement) align 8 %0, ptr noundef nonnull align 8 dereferenceable(8) %3, ptr noundef nonnull align 8 dereferenceable(8) %5)
          to label %11 unwind label %38

11:                                               ; preds = %4
  %12 = load ptr, ptr %5, align 8
  %13 = load atomic i32, ptr %12 monotonic, align 4
  switch i32 %13, label %_ZN9QtPrivate8RefCount5derefEv.exit.i [
    i32 0, label %_ZN9QtPrivate8RefCount5derefEv.exit.thread2.i
    i32 -1, label %_ZN7QStringD2Ev.exit
  ]

_ZN9QtPrivate8RefCount5derefEv.exit.i:            ; preds = %11
  %14 = atomicrmw sub ptr %12, i32 1 seq_cst, align 4
  %.not.i = icmp eq i32 %14, 1
  br i1 %.not.i, label %_ZN9QtPrivate8RefCount5derefEv.exit._ZN9QtPrivate8RefCount5derefEv.exit.thread2_crit_edge.i, label %_ZN7QStringD2Ev.exit

_ZN9QtPrivate8RefCount5derefEv.exit._ZN9QtPrivate8RefCount5derefEv.exit.thread2_crit_edge.i: ; preds = %_ZN9QtPrivate8RefCount5derefEv.exit.i
  %.pre.i = load ptr, ptr %5, align 8
  br label %_ZN9QtPrivate8RefCount5derefEv.exit.thread2.i

_ZN9QtPrivate8RefCount5derefEv.exit.thread2.i:    ; preds = %_ZN9QtPrivate8RefCount5derefEv.exit._ZN9QtPrivate8RefCount5derefEv.exit.thread2_crit_edge.i, %11
  %15 = phi ptr [ %.pre.i, %_ZN9QtPrivate8RefCount5derefEv.exit._ZN9QtPrivate8RefCount5derefEv.exit.thread2_crit_edge.i ], [ %12, %11 ]
  call void @_ZN10QArrayData10deallocateEPS_mm(ptr noundef %15, i64 noundef 2, i64 noundef 8) #21
  br label %_ZN7QStringD2Ev.exit

_ZN7QStringD2Ev.exit:                             ; preds = %11, %_ZN9QtPrivate8RefCount5derefEv.exit.i, %_ZN9QtPrivate8RefCount5derefEv.exit.thread2.i
  invoke void @_ZN4QDirC1ERK7QString(ptr noundef nonnull align 8 dereferenceable(8) %6, ptr noundef nonnull align 8 dereferenceable(8) %2)
          to label %16 unwind label %40

16:                                               ; preds = %_ZN7QStringD2Ev.exit
  %17 = invoke noundef ptr @_ZN7QString16fromAscii_helperEPKci(ptr noundef nonnull @.str.25, i32 noundef 8)
          to label %18 unwind label %42

18:                                               ; preds = %16
  store ptr %17, ptr %7, align 8
  %19 = getelementptr inbounds i8, ptr %1, i64 8
  invoke void @_ZNK4QDir16relativeFilePathERK7QString(ptr dead_on_unwind nonnull writable sret(%class.QString) align 8 %8, ptr noundef nonnull align 8 dereferenceable(8) %6, ptr noundef nonnull align 8 dereferenceable(8) %19)
          to label %20 unwind label %44

20:                                               ; preds = %18
  invoke void @_ZN11QDomElement12setAttributeERK7QStringS2_(ptr noundef nonnull align 8 dereferenceable(8) %0, ptr noundef nonnull align 8 dereferenceable(8) %7, ptr noundef nonnull align 8 dereferenceable(8) %8)
          to label %21 unwind label %46

21:                                               ; preds = %20
  %22 = load ptr, ptr %8, align 8
  %23 = load atomic i32, ptr %22 monotonic, align 4
  switch i32 %23, label %_ZN9QtPrivate8RefCount5derefEv.exit.i16 [
    i32 0, label %_ZN9QtPrivate8RefCount5derefEv.exit.thread2.i15
    i32 -1, label %_ZN7QStringD2Ev.exit20
  ]

_ZN9QtPrivate8RefCount5derefEv.exit.i16:          ; preds = %21
  %24 = atomicrmw sub ptr %22, i32 1 seq_cst, align 4
  %.not.i17 = icmp eq i32 %24, 1
  br i1 %.not.i17, label %_ZN9QtPrivate8RefCount5derefEv.exit._ZN9QtPrivate8RefCount5derefEv.exit.thread2_crit_edge.i18, label %_ZN7QStringD2Ev.exit20

_ZN9QtPrivate8RefCount5derefEv.exit._ZN9QtPrivate8RefCount5derefEv.exit.thread2_crit_edge.i18: ; preds = %_ZN9QtPrivate8RefCount5derefEv.exit.i16
  %.pre.i19 = load ptr, ptr %8, align 8
  br label %_ZN9QtPrivate8RefCount5derefEv.exit.thread2.i15

_ZN9QtPrivate8RefCount5derefEv.exit.thread2.i15:  ; preds = %_ZN9QtPrivate8RefCount5derefEv.exit._ZN9QtPrivate8RefCount5derefEv.exit.thread2_crit_edge.i18, %21
  %25 = phi ptr [ %.pre.i19, %_ZN9QtPrivate8RefCount5derefEv.exit._ZN9QtPrivate8RefCount5derefEv.exit.thread2_crit_edge.i18 ], [ %22, %21 ]
  call void @_ZN10QArrayData10deallocateEPS_mm(ptr noundef %25, i64 noundef 2, i64 noundef 8) #21
  br label %_ZN7QStringD2Ev.exit20

_ZN7QStringD2Ev.exit20:                           ; preds = %21, %_ZN9QtPrivate8RefCount5derefEv.exit.i16, %_ZN9QtPrivate8RefCount5derefEv.exit.thread2.i15
  %26 = load ptr, ptr %7, align 8
  %27 = load atomic i32, ptr %26 monotonic, align 4
  switch i32 %27, label %_ZN9QtPrivate8RefCount5derefEv.exit.i22 [
    i32 0, label %_ZN9QtPrivate8RefCount5derefEv.exit.thread2.i21
    i32 -1, label %_ZN7QStringD2Ev.exit26
  ]

_ZN9QtPrivate8RefCount5derefEv.exit.i22:          ; preds = %_ZN7QStringD2Ev.exit20
  %28 = atomicrmw sub ptr %26, i32 1 seq_cst, align 4
  %.not.i23 = icmp eq i32 %28, 1
  br i1 %.not.i23, label %_ZN9QtPrivate8RefCount5derefEv.exit._ZN9QtPrivate8RefCount5derefEv.exit.thread2_crit_edge.i24, label %_ZN7QStringD2Ev.exit26

_ZN9QtPrivate8RefCount5derefEv.exit._ZN9QtPrivate8RefCount5derefEv.exit.thread2_crit_edge.i24: ; preds = %_ZN9QtPrivate8RefCount5derefEv.exit.i22
  %.pre.i25 = load ptr, ptr %7, align 8
  br label %_ZN9QtPrivate8RefCount5derefEv.exit.thread2.i21

_ZN9QtPrivate8RefCount5derefEv.exit.thread2.i21:  ; preds = %_ZN9QtPrivate8RefCount5derefEv.exit._ZN9QtPrivate8RefCount5derefEv.exit.thread2_crit_edge.i24, %_ZN7QStringD2Ev.exit20
  %29 = phi ptr [ %.pre.i25, %_ZN9QtPrivate8RefCount5derefEv.exit._ZN9QtPrivate8RefCount5derefEv.exit.thread2_crit_edge.i24 ], [ %26, %_ZN7QStringD2Ev.exit20 ]
  call void @_ZN10QArrayData10deallocateEPS_mm(ptr noundef %29, i64 noundef 2, i64 noundef 8) #21
  br label %_ZN7QStringD2Ev.exit26

_ZN7QStringD2Ev.exit26:                           ; preds = %_ZN7QStringD2Ev.exit20, %_ZN9QtPrivate8RefCount5derefEv.exit.i22, %_ZN9QtPrivate8RefCount5derefEv.exit.thread2.i21
  %30 = invoke noundef ptr @_ZN7QString16fromAscii_helperEPKci(ptr noundef nonnull @.str.26, i32 noundef 8)
          to label %31 unwind label %42

31:                                               ; preds = %_ZN7QStringD2Ev.exit26
  store ptr %30, ptr %9, align 8
  %32 = load i32, ptr %1, align 8
  %33 = sext i32 %32 to i64
  invoke void @_ZN11QDomElement12setAttributeERK7QStringx(ptr noundef nonnull align 8 dereferenceable(8) %0, ptr noundef nonnull align 8 dereferenceable(8) %9, i64 noundef %33)
          to label %_ZN11QDomElement12setAttributeERK7QStringi.exit unwind label %49

_ZN11QDomElement12setAttributeERK7QStringi.exit:  ; preds = %31
  %34 = load ptr, ptr %9, align 8
  %35 = load atomic i32, ptr %34 monotonic, align 4
  switch i32 %35, label %_ZN9QtPrivate8RefCount5derefEv.exit.i29 [
    i32 0, label %_ZN9QtPrivate8RefCount5derefEv.exit.thread2.i28
    i32 -1, label %_ZN7QStringD2Ev.exit33
  ]

_ZN9QtPrivate8RefCount5derefEv.exit.i29:          ; preds = %_ZN11QDomElement12setAttributeERK7QStringi.exit
  %36 = atomicrmw sub ptr %34, i32 1 seq_cst, align 4
  %.not.i30 = icmp eq i32 %36, 1
  br i1 %.not.i30, label %_ZN9QtPrivate8RefCount5derefEv.exit._ZN9QtPrivate8RefCount5derefEv.exit.thread2_crit_edge.i31, label %_ZN7QStringD2Ev.exit33

_ZN9QtPrivate8RefCount5derefEv.exit._ZN9QtPrivate8RefCount5derefEv.exit.thread2_crit_edge.i31: ; preds = %_ZN9QtPrivate8RefCount5derefEv.exit.i29
  %.pre.i32 = load ptr, ptr %9, align 8
  br label %_ZN9QtPrivate8RefCount5derefEv.exit.thread2.i28

_ZN9QtPrivate8RefCount5derefEv.exit.thread2.i28:  ; preds = %_ZN9QtPrivate8RefCount5derefEv.exit._ZN9QtPrivate8RefCount5derefEv.exit.thread2_crit_edge.i31, %_ZN11QDomElement12setAttributeERK7QStringi.exit
  %37 = phi ptr [ %.pre.i32, %_ZN9QtPrivate8RefCount5derefEv.exit._ZN9QtPrivate8RefCount5derefEv.exit.thread2_crit_edge.i31 ], [ %34, %_ZN11QDomElement12setAttributeERK7QStringi.exit ]
  call void @_ZN10QArrayData10deallocateEPS_mm(ptr noundef %37, i64 noundef 2, i64 noundef 8) #21
  br label %_ZN7QStringD2Ev.exit33

_ZN7QStringD2Ev.exit33:                           ; preds = %_ZN11QDomElement12setAttributeERK7QStringi.exit, %_ZN9QtPrivate8RefCount5derefEv.exit.i29, %_ZN9QtPrivate8RefCount5derefEv.exit.thread2.i28
  call void @_ZN4QDirD1Ev(ptr noundef nonnull align 8 dereferenceable(8) %6) #21
  ret void

38:                                               ; preds = %4
  %39 = landingpad { ptr, i32 }
          cleanup
  call void @_ZN7QStringD2Ev(ptr noundef nonnull align 8 dereferenceable(8) %5) #21
  br label %53

40:                                               ; preds = %_ZN7QStringD2Ev.exit
  %41 = landingpad { ptr, i32 }
          cleanup
  br label %52

42:                                               ; preds = %_ZN7QStringD2Ev.exit26, %16
  %43 = landingpad { ptr, i32 }
          cleanup
  br label %51

44:                                               ; preds = %18
  %45 = landingpad { ptr, i32 }
          cleanup
  br label %48

46:                                               ; preds = %20
  %47 = landingpad { ptr, i32 }
          cleanup
  call void @_ZN7QStringD2Ev(ptr noundef nonnull align 8 dereferenceable(8) %8) #21
  br label %48

48:                                               ; preds = %46, %44
  %.pn = phi { ptr, i32 } [ %47, %46 ], [ %45, %44 ]
  call void @_ZN7QStringD2Ev(ptr noundef nonnull align 8 dereferenceable(8) %7) #21
  br label %51

49:                                               ; preds = %31
  %50 = landingpad { ptr, i32 }
          cleanup
  call void @_ZN7QStringD2Ev(ptr noundef nonnull align 8 dereferenceable(8) %9) #21
  br label %51

51:                                               ; preds = %49, %48, %42
  %.pn11 = phi { ptr, i32 } [ %50, %49 ], [ %43, %42 ], [ %.pn, %48 ]
  call void @_ZN4QDirD1Ev(ptr noundef nonnull align 8 dereferenceable(8) %6) #21
  br label %52

52:                                               ; preds = %51, %40
  %.pn11.pn = phi { ptr, i32 } [ %.pn11, %51 ], [ %41, %40 ]
  call void @_ZN8QDomNodeD2Ev(ptr noundef nonnull align 8 dereferenceable(8) %0) #21
  br label %53

53:                                               ; preds = %52, %38
  %.pn11.pn.pn = phi { ptr, i32 } [ %.pn11.pn, %52 ], [ %39, %38 ]
  resume { ptr, i32 } %.pn11.pn.pn
}